	.text
	.file	"n003_longest_substring.c0b432f6bfcf81d1-cgu.0"
	.section	.text._ZN3std10sys_common9backtrace28__rust_begin_short_backtrace17hc7c7f7caecd9ded0E,"ax",@progbits
	.p2align	4, 0x90
	.type	_ZN3std10sys_common9backtrace28__rust_begin_short_backtrace17hc7c7f7caecd9ded0E,@function
_ZN3std10sys_common9backtrace28__rust_begin_short_backtrace17hc7c7f7caecd9ded0E:
	.cfi_startproc
	pushq	%rax
	.cfi_def_cfa_offset 16
	callq	*%rdi
	#APP
	#NO_APP
	popq	%rax
	.cfi_def_cfa_offset 8
	retq
.Lfunc_end0:
	.size	_ZN3std10sys_common9backtrace28__rust_begin_short_backtrace17hc7c7f7caecd9ded0E, .Lfunc_end0-_ZN3std10sys_common9backtrace28__rust_begin_short_backtrace17hc7c7f7caecd9ded0E
	.cfi_endproc

	.section	.text._ZN3std2rt10lang_start17hc55a1e453a696c46E,"ax",@progbits
	.hidden	_ZN3std2rt10lang_start17hc55a1e453a696c46E
	.globl	_ZN3std2rt10lang_start17hc55a1e453a696c46E
	.p2align	4, 0x90
	.type	_ZN3std2rt10lang_start17hc55a1e453a696c46E,@function
_ZN3std2rt10lang_start17hc55a1e453a696c46E:
	.cfi_startproc
	pushq	%rax
	.cfi_def_cfa_offset 16
	movl	%ecx, %r8d
	movq	%rdx, %rcx
	movq	%rsi, %rdx
	movq	%rdi, (%rsp)
	leaq	.L__unnamed_1(%rip), %rsi
	movq	%rsp, %rdi
	callq	*_ZN3std2rt19lang_start_internal17hc2b0a41283277417E@GOTPCREL(%rip)
	popq	%rcx
	.cfi_def_cfa_offset 8
	retq
.Lfunc_end1:
	.size	_ZN3std2rt10lang_start17hc55a1e453a696c46E, .Lfunc_end1-_ZN3std2rt10lang_start17hc55a1e453a696c46E
	.cfi_endproc

	.section	".text._ZN3std2rt10lang_start28_$u7b$$u7b$closure$u7d$$u7d$17hab592d0accf381daE","ax",@progbits
	.p2align	4, 0x90
	.type	_ZN3std2rt10lang_start28_$u7b$$u7b$closure$u7d$$u7d$17hab592d0accf381daE,@function
_ZN3std2rt10lang_start28_$u7b$$u7b$closure$u7d$$u7d$17hab592d0accf381daE:
	.cfi_startproc
	pushq	%rax
	.cfi_def_cfa_offset 16
	movq	(%rdi), %rdi
	callq	_ZN3std10sys_common9backtrace28__rust_begin_short_backtrace17hc7c7f7caecd9ded0E
	xorl	%eax, %eax
	popq	%rcx
	.cfi_def_cfa_offset 8
	retq
.Lfunc_end2:
	.size	_ZN3std2rt10lang_start28_$u7b$$u7b$closure$u7d$$u7d$17hab592d0accf381daE, .Lfunc_end2-_ZN3std2rt10lang_start28_$u7b$$u7b$closure$u7d$$u7d$17hab592d0accf381daE
	.cfi_endproc

	.section	".text._ZN4core3ops8function6FnOnce40call_once$u7b$$u7b$vtable.shim$u7d$$u7d$17h6ef2dff27399f18fE","ax",@progbits
	.p2align	4, 0x90
	.type	_ZN4core3ops8function6FnOnce40call_once$u7b$$u7b$vtable.shim$u7d$$u7d$17h6ef2dff27399f18fE,@function
_ZN4core3ops8function6FnOnce40call_once$u7b$$u7b$vtable.shim$u7d$$u7d$17h6ef2dff27399f18fE:
	.cfi_startproc
	pushq	%rax
	.cfi_def_cfa_offset 16
	movq	(%rdi), %rdi
	callq	_ZN3std10sys_common9backtrace28__rust_begin_short_backtrace17hc7c7f7caecd9ded0E
	xorl	%eax, %eax
	popq	%rcx
	.cfi_def_cfa_offset 8
	retq
.Lfunc_end3:
	.size	_ZN4core3ops8function6FnOnce40call_once$u7b$$u7b$vtable.shim$u7d$$u7d$17h6ef2dff27399f18fE, .Lfunc_end3-_ZN4core3ops8function6FnOnce40call_once$u7b$$u7b$vtable.shim$u7d$$u7d$17h6ef2dff27399f18fE
	.cfi_endproc

	.section	".text._ZN4core3ptr85drop_in_place$LT$std..rt..lang_start$LT$$LP$$RP$$GT$..$u7b$$u7b$closure$u7d$$u7d$$GT$17h5d7feaec3c6ab852E","ax",@progbits
	.p2align	4, 0x90
	.type	_ZN4core3ptr85drop_in_place$LT$std..rt..lang_start$LT$$LP$$RP$$GT$..$u7b$$u7b$closure$u7d$$u7d$$GT$17h5d7feaec3c6ab852E,@function
_ZN4core3ptr85drop_in_place$LT$std..rt..lang_start$LT$$LP$$RP$$GT$..$u7b$$u7b$closure$u7d$$u7d$$GT$17h5d7feaec3c6ab852E:
	.cfi_startproc
	retq
.Lfunc_end4:
	.size	_ZN4core3ptr85drop_in_place$LT$std..rt..lang_start$LT$$LP$$RP$$GT$..$u7b$$u7b$closure$u7d$$u7d$$GT$17h5d7feaec3c6ab852E, .Lfunc_end4-_ZN4core3ptr85drop_in_place$LT$std..rt..lang_start$LT$$LP$$RP$$GT$..$u7b$$u7b$closure$u7d$$u7d$$GT$17h5d7feaec3c6ab852E
	.cfi_endproc

	.section	.text._ZN22n003_longest_substring4main17h3ab686987157cf74E,"ax",@progbits
	.p2align	4, 0x90
	.type	_ZN22n003_longest_substring4main17h3ab686987157cf74E,@function
_ZN22n003_longest_substring4main17h3ab686987157cf74E:
	.cfi_startproc
	subq	$56, %rsp
	.cfi_def_cfa_offset 64
	leaq	.L__unnamed_2(%rip), %rax
	movq	%rax, 8(%rsp)
	movq	$1, 16(%rsp)
	leaq	.L__unnamed_3(%rip), %rax
	movq	%rax, 24(%rsp)
	xorps	%xmm0, %xmm0
	movups	%xmm0, 32(%rsp)
	leaq	8(%rsp), %rdi
	callq	*_ZN3std2io5stdio6_print17h445a892f00b4863aE@GOTPCREL(%rip)
	addq	$56, %rsp
	.cfi_def_cfa_offset 8
	retq
.Lfunc_end5:
	.size	_ZN22n003_longest_substring4main17h3ab686987157cf74E, .Lfunc_end5-_ZN22n003_longest_substring4main17h3ab686987157cf74E
	.cfi_endproc

	.section	.text.main,"ax",@progbits
	.globl	main
	.p2align	4, 0x90
	.type	main,@function
main:
	.cfi_startproc
	pushq	%rax
	.cfi_def_cfa_offset 16
	movq	%rsi, %rcx
	movslq	%edi, %rdx
	leaq	_ZN22n003_longest_substring4main17h3ab686987157cf74E(%rip), %rax
	movq	%rax, (%rsp)
	leaq	.L__unnamed_1(%rip), %rsi
	movq	%rsp, %rdi
	xorl	%r8d, %r8d
	callq	*_ZN3std2rt19lang_start_internal17hc2b0a41283277417E@GOTPCREL(%rip)
	popq	%rcx
	.cfi_def_cfa_offset 8
	retq
.Lfunc_end6:
	.size	main, .Lfunc_end6-main
	.cfi_endproc

	.type	.L__unnamed_1,@object
	.section	.data.rel.ro..L__unnamed_1,"aw",@progbits
	.p2align	3, 0x0
.L__unnamed_1:
	.quad	_ZN4core3ptr85drop_in_place$LT$std..rt..lang_start$LT$$LP$$RP$$GT$..$u7b$$u7b$closure$u7d$$u7d$$GT$17h5d7feaec3c6ab852E
	.asciz	"\b\000\000\000\000\000\000\000\b\000\000\000\000\000\000"
	.quad	_ZN4core3ops8function6FnOnce40call_once$u7b$$u7b$vtable.shim$u7d$$u7d$17h6ef2dff27399f18fE
	.quad	_ZN3std2rt10lang_start28_$u7b$$u7b$closure$u7d$$u7d$17hab592d0accf381daE
	.quad	_ZN3std2rt10lang_start28_$u7b$$u7b$closure$u7d$$u7d$17hab592d0accf381daE
	.size	.L__unnamed_1, 48

	.type	.L__unnamed_4,@object
	.section	.rodata..L__unnamed_4,"a",@progbits
.L__unnamed_4:
	.ascii	"Hello, world!\n"
	.size	.L__unnamed_4, 14

	.type	.L__unnamed_2,@object
	.section	.data.rel.ro..L__unnamed_2,"aw",@progbits
	.p2align	3, 0x0
.L__unnamed_2:
	.quad	.L__unnamed_4
	.asciz	"\016\000\000\000\000\000\000"
	.size	.L__unnamed_2, 16

	.type	.L__unnamed_3,@object
	.section	.rodata..L__unnamed_3,"a",@progbits
	.p2align	3, 0x0
.L__unnamed_3:
	.size	.L__unnamed_3, 0

	.section	".note.GNU-stack","",@progbits
